target datalayout = "e-m:e-p270:32:32-p271:32:32-p272:64:64-i64:64-i128:128-f80:128-n8:16:32:64-S128"
target triple = "x86_64-pc-linux-gnu"

%class.LayoutPreferencesFrame = type { %class.QFrame, ptr, ptr, ptr, ptr, ptr, ptr, ptr, ptr, ptr, ptr, ptr, ptr }
%class.QFrame = type { %class.QWidget }
%class.QWidget = type { %class.QObject, %class.QPaintDevice.base, ptr }
%class.QObject = type { ptr, %class.QScopedPointer }
%class.QScopedPointer = type { ptr }
%class.QPaintDevice.base = type <{ ptr, i16 }>
%class.Ui_LayoutPreferencesFrame = type { ptr, ptr, ptr, ptr, ptr, ptr, ptr, ptr, ptr, ptr, ptr, ptr, ptr, ptr, ptr, ptr, ptr, ptr, ptr, ptr, ptr, ptr, ptr, ptr, ptr, ptr, ptr, ptr, ptr, ptr, ptr, ptr, ptr, ptr, ptr, ptr, ptr, ptr, ptr, ptr, ptr, ptr, ptr, ptr, ptr, ptr, ptr, ptr, ptr, ptr }

; Function Attrs: mustprogress null_pointer_is_valid sspstrong uwtable
define void @_ZN22LayoutPreferencesFrame37on_pane1PacketListRadioButton_toggledEb(ptr noundef align 8 dereferenceable_or_null(136) %0, i1 noundef zeroext %1) #0 align 2 {
  %3 = alloca ptr, align 8
  %4 = alloca i8, align 1
  store ptr %0, ptr %3, align 8
  %5 = zext i1 %1 to i8
  store i8 %5, ptr %4, align 1
  %6 = load ptr, ptr %3, align 8
  %7 = load i8, ptr %4, align 1, !range !6, !noundef !7
  %8 = trunc i8 %7 to i1
  br i1 %8, label %10, label %9

9:                                                ; preds = %2
  br label %35

10:                                               ; preds = %2
  %11 = getelementptr inbounds nuw %class.LayoutPreferencesFrame, ptr %6, i32 0, i32 3
  %12 = load ptr, ptr %11, align 8
  %13 = call i32 @prefs_set_enum_value(ptr noundef %12, i32 noundef 1, i32 noundef 1)
  %14 = getelementptr inbounds nuw %class.LayoutPreferencesFrame, ptr %6, i32 0, i32 1
  %15 = load ptr, ptr %14, align 8
  %16 = getelementptr inbounds nuw %class.Ui_LayoutPreferencesFrame, ptr %15, i32 0, i32 18
  %17 = load ptr, ptr %16, align 8
  %18 = call noundef zeroext i1 @_ZNK15QAbstractButton9isCheckedEv(ptr noundef align 8 dereferenceable_or_null(40) %17)
  br i1 %18, label %19, label %24

19:                                               ; preds = %10
  %20 = getelementptr inbounds nuw %class.LayoutPreferencesFrame, ptr %6, i32 0, i32 1
  %21 = load ptr, ptr %20, align 8
  %22 = getelementptr inbounds nuw %class.Ui_LayoutPreferencesFrame, ptr %21, i32 0, i32 22
  %23 = load ptr, ptr %22, align 8
  call void @_ZN15QAbstractButton5clickEv(ptr noundef align 8 dereferenceable_or_null(40) %23)
  br label %24

24:                                               ; preds = %19, %10
  %25 = getelementptr inbounds nuw %class.LayoutPreferencesFrame, ptr %6, i32 0, i32 1
  %26 = load ptr, ptr %25, align 8
  %27 = getelementptr inbounds nuw %class.Ui_LayoutPreferencesFrame, ptr %26, i32 0, i32 25
  %28 = load ptr, ptr %27, align 8
  %29 = call noundef zeroext i1 @_ZNK15QAbstractButton9isCheckedEv(ptr noundef align 8 dereferenceable_or_null(40) %28)
  br i1 %29, label %30, label %35

30:                                               ; preds = %24
  %31 = getelementptr inbounds nuw %class.LayoutPreferencesFrame, ptr %6, i32 0, i32 1
  %32 = load ptr, ptr %31, align 8
  %33 = getelementptr inbounds nuw %class.Ui_LayoutPreferencesFrame, ptr %32, i32 0, i32 29
  %34 = load ptr, ptr %33, align 8
  call void @_ZN15QAbstractButton5clickEv(ptr noundef align 8 dereferenceable_or_null(40) %34)
  br label %35

35:                                               ; preds = %9, %30, %24
  ret void
}